ccopy_reg
_reconstructor
p0
(cgoogle.oauth2.credentials
Credentials
p1
c__builtin__
object
p2
Ntp3
Rp4
(dp5
S'_quota_project_id'
p6
NsS'_token_uri'
p7
Vhttps://oauth2.googleapis.com/token
p8
sS'_client_secret'
p9
Vj6GveZD6PuniEDPyai1_HJpD
p10
sS'_default_scopes'
p11
NsS'expiry'
p12
cdatetime
datetime
p13
(S'\x07\xe5\x07\x0b\x0c\x10\x16\x08\xb7O'
p14
tp15
Rp16
sS'token'
p17
Vya29.a0ARrdaM89aeom5Z2Qzl54yuEDT3ZJC7g6BpzzvIptG8qXmhxZdiOUMr8z9VQif_rJ3D41UxpyNB8ll1ogL6m04-782CI21pD3bn6IwNqVzcZDgsd76oHNWzIQQA9La8uzSBzNOZ030i5N-Ea7dz-OWWKCDXDb
p18
sS'_refresh_token'
p19
V1//0gFSLNlyr4yqRCgYIARAAGBASNwF-L9IrvSivIWSOKg7LyEOMDnq8GnRF3oIAUXAKJQ9t14g7nUqwIrF5zzLuGemmHx12jRXJ8ss
p20
sS'_scopes'
p21
(lp22
S'https://www.googleapis.com/auth/drive'
p23
asS'_client_id'
p24
V790549799643-sbrkhbs9ruou1qtj8j490dh9ifeunqh0.apps.googleusercontent.com
p25
sS'_id_token'
p26
NsS'_rapt_token'
p27
Nsb.